; ModuleID = '43/1580.c'
source_filename = "43/1580.c"
target datalayout = "e-m:e-p270:32:32-p271:32:32-p272:64:64-i64:64-f80:128-n8:16:32:64-S128"
target triple = "x86_64-pc-linux-gnu"

@.str = private unnamed_addr constant [3 x i8] c"%d\00", align 1
@.str.1 = private unnamed_addr constant [7 x i8] c"%d %d\0A\00", align 1

; Function Attrs: noinline nounwind uwtable
define dso_local i32 @main() #0 {
  %1 = alloca i32, align 4
  %2 = alloca i32, align 4
  %3 = alloca i32, align 4
  %4 = alloca i32, align 4
  %5 = alloca i32, align 4
  %6 = alloca i32, align 4
  %7 = alloca i32, align 4
  %8 = alloca i32, align 4
  %9 = alloca i32, align 4
  %10 = alloca i32, align 4
  store i32 0, i32* %1, align 4
  store i32 0, i32* %10, align 4
  %11 = call i32 (i8*, ...) @__isoc99_scanf(i8* getelementptr inbounds ([3 x i8], [3 x i8]* @.str, i64 0, i64 0), i32* %2)
  %12 = load i32, i32* %2, align 4
  %13 = sdiv i32 %12, 2
  store i32 %13, i32* %3, align 4
  store i32 3, i32* %4, align 4
  br label %14

14:                                               ; preds = %71, %0
  %15 = load i32, i32* %4, align 4
  %16 = load i32, i32* %3, align 4
  %17 = icmp sle i32 %15, %16
  br i1 %17, label %18, label %74

18:                                               ; preds = %14
  store i32 3, i32* %5, align 4
  br label %19

19:                                               ; preds = %36, %18
  %20 = load i32, i32* %5, align 4
  %21 = sitofp i32 %20 to double
  %22 = load i32, i32* %4, align 4
  %23 = sitofp i32 %22 to double
  %24 = call double @sqrt(double %23) #3
  %25 = fcmp ole double %21, %24
  br i1 %25, label %26, label %39

26:                                               ; preds = %19
  %27 = load i32, i32* %4, align 4
  %28 = load i32, i32* %5, align 4
  %29 = srem i32 %27, %28
  store i32 %29, i32* %7, align 4
  %30 = load i32, i32* %7, align 4
  %31 = icmp eq i32 %30, 0
  br i1 %31, label %32, label %35

32:                                               ; preds = %26
  %33 = load i32, i32* %10, align 4
  %34 = add nsw i32 %33, 1
  store i32 %34, i32* %10, align 4
  br label %39

35:                                               ; preds = %26
  br label %36

36:                                               ; preds = %35
  %37 = load i32, i32* %5, align 4
  %38 = add nsw i32 %37, 2
  store i32 %38, i32* %5, align 4
  br label %19

39:                                               ; preds = %32, %19
  %40 = load i32, i32* %2, align 4
  %41 = load i32, i32* %4, align 4
  %42 = sub nsw i32 %40, %41
  store i32 %42, i32* %8, align 4
  store i32 3, i32* %6, align 4
  br label %43

43:                                               ; preds = %60, %39
  %44 = load i32, i32* %6, align 4
  %45 = sitofp i32 %44 to double
  %46 = load i32, i32* %8, align 4
  %47 = sitofp i32 %46 to double
  %48 = call double @sqrt(double %47) #3
  %49 = fcmp ole double %45, %48
  br i1 %49, label %50, label %63

50:                                               ; preds = %43
  %51 = load i32, i32* %8, align 4
  %52 = load i32, i32* %6, align 4
  %53 = srem i32 %51, %52
  store i32 %53, i32* %9, align 4
  %54 = load i32, i32* %9, align 4
  %55 = icmp eq i32 %54, 0
  br i1 %55, label %56, label %59

56:                                               ; preds = %50
  %57 = load i32, i32* %10, align 4
  %58 = add nsw i32 %57, 1
  store i32 %58, i32* %10, align 4
  br label %63

59:                                               ; preds = %50
  br label %60

60:                                               ; preds = %59
  %61 = load i32, i32* %6, align 4
  %62 = add nsw i32 %61, 2
  store i32 %62, i32* %6, align 4
  br label %43

63:                                               ; preds = %56, %43
  %64 = load i32, i32* %10, align 4
  %65 = icmp eq i32 %64, 0
  br i1 %65, label %66, label %70

66:                                               ; preds = %63
  %67 = load i32, i32* %4, align 4
  %68 = load i32, i32* %8, align 4
  %69 = call i32 (i8*, ...) @printf(i8* getelementptr inbounds ([7 x i8], [7 x i8]* @.str.1, i64 0, i64 0), i32 %67, i32 %68)
  br label %70

70:                                               ; preds = %66, %63
  store i32 0, i32* %10, align 4
  br label %71

71:                                               ; preds = %70
  %72 = load i32, i32* %4, align 4
  %73 = add nsw i32 %72, 2
  store i32 %73, i32* %4, align 4
  br label %14

74:                                               ; preds = %14
  ret i32 0
}

declare dso_local i32 @__isoc99_scanf(i8*, ...) #1

; Function Attrs: nounwind
declare dso_local double @sqrt(double) #2

declare dso_local i32 @printf(i8*, ...) #1


!llvm.module.flags = !{!0}
!llvm.ident = !{!1}

!0 = !{i32 1, !"wchar_size", i32 4}
!1 = !{!"clang version 10.0.0-4ubuntu1 "}
