; ModuleID = 'source-C-CXX/42/1580.c'
source_filename = "source-C-CXX/42/1580.c"
target datalayout = "e-m:e-p270:32:32-p271:32:32-p272:64:64-i64:64-f80:128-n8:16:32:64-S128"
target triple = "x86_64-pc-linux-gnu"

@.str = private unnamed_addr constant [3 x i8] c"%d\00", align 1
@.str.1 = private unnamed_addr constant [7 x i8] c"%d %d\0A\00", align 1

; Function Attrs: nofree nounwind sspstrong uwtable
define dso_local i32 @main() local_unnamed_addr #0 {
  %1 = alloca i32, align 4
  %2 = bitcast i32* %1 to i8*
  call void @llvm.lifetime.start.p0i8(i64 4, i8* nonnull %2) #4
  %3 = call i32 (i8*, ...) @__isoc99_scanf(i8* getelementptr inbounds ([3 x i8], [3 x i8]* @.str, i64 0, i64 0), i32* nonnull %1)
  %4 = load i32, i32* %1, align 4, !tbaa !5
  %5 = sdiv i32 %4, 2
  %6 = icmp slt i32 %4, 6
  br i1 %6, label %45, label %7

7:                                                ; preds = %0, %42
  %8 = phi i32 [ %43, %42 ], [ 3, %0 ]
  %9 = sitofp i32 %8 to double
  %10 = call double @sqrt(double %9) #4
  %11 = fcmp ult double %10, 3.000000e+00
  br i1 %11, label %23, label %16

12:                                               ; preds = %16
  %13 = sitofp i32 %20 to double
  %14 = call double @sqrt(double %9) #4
  %15 = fcmp ult double %14, %13
  br i1 %15, label %21, label %16, !llvm.loop !9

16:                                               ; preds = %7, %12
  %17 = phi i32 [ %20, %12 ], [ 3, %7 ]
  %18 = urem i32 %8, %17
  %19 = icmp eq i32 %18, 0
  %20 = add nuw nsw i32 %17, 2
  br i1 %19, label %21, label %12

21:                                               ; preds = %16, %12
  %22 = xor i1 %19, true
  br label %23

23:                                               ; preds = %21, %7
  %24 = phi i1 [ true, %7 ], [ %22, %21 ]
  %25 = load i32, i32* %1, align 4, !tbaa !5
  %26 = sub nsw i32 %25, %8
  %27 = sitofp i32 %26 to double
  %28 = call double @sqrt(double %27) #4
  %29 = fcmp ult double %28, 3.000000e+00
  br i1 %29, label %39, label %34

30:                                               ; preds = %34
  %31 = sitofp i32 %38 to double
  %32 = call double @sqrt(double %27) #4
  %33 = fcmp ult double %32, %31
  br i1 %33, label %39, label %34, !llvm.loop !11

34:                                               ; preds = %23, %30
  %35 = phi i32 [ %38, %30 ], [ 3, %23 ]
  %36 = srem i32 %26, %35
  %37 = icmp eq i32 %36, 0
  %38 = add nuw nsw i32 %35, 2
  br i1 %37, label %42, label %30

39:                                               ; preds = %30, %23
  br i1 %24, label %40, label %42

40:                                               ; preds = %39
  %41 = call i32 (i8*, ...) @printf(i8* nonnull dereferenceable(1) getelementptr inbounds ([7 x i8], [7 x i8]* @.str.1, i64 0, i64 0), i32 %8, i32 %26)
  br label %42

42:                                               ; preds = %34, %40, %39
  %43 = add nuw nsw i32 %8, 2
  %44 = icmp sgt i32 %43, %5
  br i1 %44, label %45, label %7, !llvm.loop !12

45:                                               ; preds = %42, %0
  call void @llvm.lifetime.end.p0i8(i64 4, i8* nonnull %2) #4
  ret i32 0
}

; Function Attrs: argmemonly mustprogress nofree nosync nounwind willreturn
declare void @llvm.lifetime.start.p0i8(i64 immarg, i8* nocapture) #1

; Function Attrs: nofree nounwind
declare noundef i32 @__isoc99_scanf(i8* nocapture noundef readonly, ...) local_unnamed_addr #2

; Function Attrs: mustprogress nofree nounwind willreturn
declare double @sqrt(double) local_unnamed_addr #3

; Function Attrs: nofree nounwind
declare noundef i32 @printf(i8* nocapture noundef readonly, ...) local_unnamed_addr #2

; Function Attrs: argmemonly mustprogress nofree nosync nounwind willreturn
declare void @llvm.lifetime.end.p0i8(i64 immarg, i8* nocapture) #1


!llvm.module.flags = !{!0, !1, !2, !3}
!llvm.ident = !{!4}

!0 = !{i32 1, !"wchar_size", i32 4}
!1 = !{i32 7, !"PIC Level", i32 2}
!2 = !{i32 7, !"PIE Level", i32 2}
!3 = !{i32 7, !"uwtable", i32 1}
!4 = !{!"clang version 13.0.0"}
!5 = !{!6, !6, i64 0}
!6 = !{!"int", !7, i64 0}
!7 = !{!"omnipotent char", !8, i64 0}
!8 = !{!"Simple C/C++ TBAA"}
!9 = distinct !{!9, !10}
!10 = !{!"llvm.loop.mustprogress"}
!11 = distinct !{!11, !10}
!12 = distinct !{!12, !10}
